; Function Attrs: mustprogress uwtable
define internal void @_ZL12cmRemoveFilePKc(ptr noundef %0) #6 personality ptr @__gxx_personality_v0 {
  %2 = alloca %"class.std::__cxx11::basic_string", align 8
  %3 = alloca %"class.std::allocator", align 1
  call void @_ZNSaIcEC1Ev(ptr noundef nonnull align 1 dereferenceable(1) %3) #30
  %4 = invoke noundef ptr @_ZNSt7__cxx1112basic_stringIcSt11char_traitsIcESaIcEE13_M_local_dataEv(ptr noundef nonnull align 8 dereferenceable(32) %2)
          to label %.noexc unwind label %15

.noexc:                                           ; preds = %1
  invoke void @_ZNSt7__cxx1112basic_stringIcSt11char_traitsIcESaIcEE12_Alloc_hiderC1EPcRKS3_(ptr noundef nonnull align 8 dereferenceable(8) %2, ptr noundef %4, ptr noundef nonnull align 1 dereferenceable(1) %3)
          to label %.noexc4 unwind label %15

.noexc4:                                          ; preds = %.noexc
  %5 = icmp eq ptr %0, null
  br i1 %5, label %6, label %10

6:                                                ; preds = %.noexc4
  invoke void @_ZSt19__throw_logic_errorPKc(ptr noundef nonnull @.str.14) #35
          to label %7 unwind label %8

7:                                                ; preds = %6
  unreachable

8:                                                ; preds = %10, %6
  %9 = landingpad { ptr, i32 }
          cleanup
  call void @_ZNSaIcED2Ev(ptr noundef nonnull align 1 dereferenceable(1) %2) #30
  br label %.body

10:                                               ; preds = %.noexc4
  %11 = call noundef i64 @strlen(ptr noundef nonnull dereferenceable(1) %0) #30
  %12 = getelementptr inbounds i8, ptr %0, i64 %11
  invoke void @_ZNSt7__cxx1112basic_stringIcSt11char_traitsIcESaIcEE12_M_constructIPKcEEvT_S8_St20forward_iterator_tag(ptr noundef nonnull align 8 dereferenceable(32) %2, ptr noundef nonnull %0, ptr noundef nonnull %12)
          to label %_ZNSt7__cxx1112basic_stringIcSt11char_traitsIcESaIcEEC2IS3_EEPKcRKS3_.exit unwind label %8

_ZNSt7__cxx1112basic_stringIcSt11char_traitsIcESaIcEEC2IS3_EEPKcRKS3_.exit: ; preds = %10
  %13 = invoke i64 @_ZN5cmsys11SystemTools10RemoveFileERKNSt7__cxx1112basic_stringIcSt11char_traitsIcESaIcEEE(ptr noundef nonnull align 8 dereferenceable(32) %2)
          to label %14 unwind label %17

14:                                               ; preds = %_ZNSt7__cxx1112basic_stringIcSt11char_traitsIcESaIcEEC2IS3_EEPKcRKS3_.exit
  call void @_ZNSt7__cxx1112basic_stringIcSt11char_traitsIcESaIcEED1Ev(ptr noundef nonnull align 8 dereferenceable(32) %2) #30
  call void @_ZNSaIcED1Ev(ptr noundef nonnull align 1 dereferenceable(1) %3) #30
  ret void

15:                                               ; preds = %.noexc, %1
  %16 = landingpad { ptr, i32 }
          cleanup
  br label %.body

17:                                               ; preds = %_ZNSt7__cxx1112basic_stringIcSt11char_traitsIcESaIcEEC2IS3_EEPKcRKS3_.exit
  %18 = landingpad { ptr, i32 }
          cleanup
  call void @_ZNSt7__cxx1112basic_stringIcSt11char_traitsIcESaIcEED1Ev(ptr noundef nonnull align 8 dereferenceable(32) %2) #30
  br label %.body

.body:                                            ; preds = %15, %8, %17
  %.pn = phi { ptr, i32 } [ %18, %17 ], [ %16, %15 ], [ %9, %8 ]
  call void @_ZNSaIcED1Ev(ptr noundef nonnull align 1 dereferenceable(1) %3) #30
  resume { ptr, i32 } %.pn
}